target datalayout = "e-m:e-p270:32:32-p271:32:32-p272:64:64-i64:64-i128:128-f80:128-n8:16:32:64-S128"
target triple = "x86_64-pc-linux-gnu"

%struct.DdManager = type { %struct.DdNode, ptr, ptr, ptr, ptr, ptr, ptr, ptr, i32, i32, double, double, double, i32, i32, i32, i32, i32, i32, ptr, ptr, %struct.DdSubtable, i32, i32, i32, i32, i32, i32, i32, double, i32, i32, i32, ptr, i64, double, i32, ptr, ptr, ptr, ptr, ptr, ptr, ptr, i32, ptr, ptr, ptr, ptr, ptr, ptr, i32, i32, i32, double, i32, i32, i32, i32, double, double, i32, i32, i32, i32, i32, i32, i32, i32, i32, ptr, ptr, i32, i32, i32, i32, i32, i32, ptr, ptr, ptr, ptr, ptr, ptr, ptr, ptr, i32, i64, i64, i64, i32, i64, i64, double, double, double, double, double, double, i32, ptr, ptr, i64 }
%struct.DdNode = type { i32, i32, ptr, %union.anon, i64 }
%union.anon = type { %struct.DdChildren }
%struct.DdChildren = type { ptr, ptr }
%struct.DdSubtable = type { ptr, i32, i32, i32, i32, i32, i32, i32, i32, i32, i32, i32 }

; Function Attrs: nounwind uwtable
define ptr @extraZddGetSingletons(ptr noundef %0, ptr noundef %1) #0 {
  %3 = alloca ptr, align 8
  %4 = alloca ptr, align 8
  %5 = alloca ptr, align 8
  %6 = alloca ptr, align 8
  %7 = alloca i32, align 4
  %8 = alloca ptr, align 8
  %9 = alloca ptr, align 8
  store ptr %0, ptr %4, align 8, !tbaa !3
  store ptr %1, ptr %5, align 8, !tbaa !8
  call void @llvm.lifetime.start.p0(i64 8, ptr %6) #6
  %10 = load ptr, ptr %5, align 8, !tbaa !8
  %11 = load ptr, ptr %4, align 8, !tbaa !3
  %12 = getelementptr inbounds nuw %struct.DdManager, ptr %11, i32 0, i32 1
  %13 = load ptr, ptr %12, align 8, !tbaa !38
  %14 = icmp eq ptr %10, %13
  br i1 %14, label %15, label %19

15:                                               ; preds = %2
  %16 = load ptr, ptr %4, align 8, !tbaa !3
  %17 = getelementptr inbounds nuw %struct.DdManager, ptr %16, i32 0, i32 1
  %18 = load ptr, ptr %17, align 8, !tbaa !38
  store ptr %18, ptr %3, align 8
  store i32 1, ptr %7, align 4
  br label %104

19:                                               ; preds = %2
  %20 = load ptr, ptr %4, align 8, !tbaa !3
  %21 = load ptr, ptr %5, align 8, !tbaa !8
  %22 = call ptr @cuddCacheLookup1Zdd(ptr noundef %20, ptr noundef @extraZddGetSingletons, ptr noundef %21)
  store ptr %22, ptr %6, align 8, !tbaa !8
  %23 = icmp ne ptr %22, null
  br i1 %23, label %24, label %26

24:                                               ; preds = %19
  %25 = load ptr, ptr %6, align 8, !tbaa !8
  store ptr %25, ptr %3, align 8
  store i32 1, ptr %7, align 4
  br label %104

26:                                               ; preds = %19
  call void @llvm.lifetime.start.p0(i64 8, ptr %8) #6
  call void @llvm.lifetime.start.p0(i64 8, ptr %9) #6
  %27 = load ptr, ptr %4, align 8, !tbaa !3
  %28 = load ptr, ptr %5, align 8, !tbaa !8
  %29 = getelementptr inbounds nuw %struct.DdNode, ptr %28, i32 0, i32 3
  %30 = getelementptr inbounds nuw %struct.DdChildren, ptr %29, i32 0, i32 0
  %31 = load ptr, ptr %30, align 8, !tbaa !41
  %32 = call ptr @extraZddGetSingletons(ptr noundef %27, ptr noundef %31)
  store ptr %32, ptr %6, align 8, !tbaa !8
  %33 = load ptr, ptr %6, align 8, !tbaa !8
  %34 = icmp eq ptr %33, null
  br i1 %34, label %35, label %36

35:                                               ; preds = %26
  store ptr null, ptr %3, align 8
  store i32 1, ptr %7, align 4
  br label %103

36:                                               ; preds = %26
  %37 = load ptr, ptr %6, align 8, !tbaa !8
  %38 = ptrtoint ptr %37 to i64
  %39 = and i64 %38, -2
  %40 = inttoptr i64 %39 to ptr
  %41 = getelementptr inbounds nuw %struct.DdNode, ptr %40, i32 0, i32 1
  %42 = load i32, ptr %41, align 4, !tbaa !51
  %43 = add i32 %42, 1
  store i32 %43, ptr %41, align 4, !tbaa !51
  %44 = load ptr, ptr %4, align 8, !tbaa !3
  %45 = load ptr, ptr %5, align 8, !tbaa !8
  %46 = getelementptr inbounds nuw %struct.DdNode, ptr %45, i32 0, i32 0
  %47 = load i32, ptr %46, align 8, !tbaa !39
  %48 = mul i32 2, %47
  %49 = load ptr, ptr %4, align 8, !tbaa !3
  %50 = getelementptr inbounds nuw %struct.DdManager, ptr %49, i32 0, i32 1
  %51 = load ptr, ptr %50, align 8, !tbaa !38
  %52 = load ptr, ptr %4, align 8, !tbaa !3
  %53 = getelementptr inbounds nuw %struct.DdManager, ptr %52, i32 0, i32 2
  %54 = load ptr, ptr %53, align 8, !tbaa !43
  %55 = call ptr @cuddZddGetNode(ptr noundef %44, i32 noundef %48, ptr noundef %51, ptr noundef %54)
  store ptr %55, ptr %9, align 8, !tbaa !8
  %56 = load ptr, ptr %9, align 8, !tbaa !8
  %57 = icmp eq ptr %56, null
  br i1 %57, label %58, label %61

58:                                               ; preds = %36
  %59 = load ptr, ptr %4, align 8, !tbaa !3
  %60 = load ptr, ptr %6, align 8, !tbaa !8
  call void @Cudd_RecursiveDerefZdd(ptr noundef %59, ptr noundef %60)
  store ptr null, ptr %3, align 8
  store i32 1, ptr %7, align 4
  br label %103

61:                                               ; preds = %36
  %62 = load ptr, ptr %9, align 8, !tbaa !8
  %63 = ptrtoint ptr %62 to i64
  %64 = and i64 %63, -2
  %65 = inttoptr i64 %64 to ptr
  %66 = getelementptr inbounds nuw %struct.DdNode, ptr %65, i32 0, i32 1
  %67 = load i32, ptr %66, align 4, !tbaa !51
  %68 = add i32 %67, 1
  store i32 %68, ptr %66, align 4, !tbaa !51
  %69 = load ptr, ptr %4, align 8, !tbaa !3
  %70 = load ptr, ptr %6, align 8, !tbaa !8
  store ptr %70, ptr %8, align 8, !tbaa !8
  %71 = load ptr, ptr %9, align 8, !tbaa !8
  %72 = call ptr @cuddZddUnion(ptr noundef %69, ptr noundef %70, ptr noundef %71)
  store ptr %72, ptr %6, align 8, !tbaa !8
  %73 = load ptr, ptr %6, align 8, !tbaa !8
  %74 = icmp eq ptr %73, null
  br i1 %74, label %75, label %80

75:                                               ; preds = %61
  %76 = load ptr, ptr %4, align 8, !tbaa !3
  %77 = load ptr, ptr %8, align 8, !tbaa !8
  call void @Cudd_RecursiveDerefZdd(ptr noundef %76, ptr noundef %77)
  %78 = load ptr, ptr %4, align 8, !tbaa !3
  %79 = load ptr, ptr %9, align 8, !tbaa !8
  call void @Cudd_RecursiveDerefZdd(ptr noundef %78, ptr noundef %79)
  store ptr null, ptr %3, align 8
  store i32 1, ptr %7, align 4
  br label %103

80:                                               ; preds = %61
  %81 = load ptr, ptr %6, align 8, !tbaa !8
  %82 = ptrtoint ptr %81 to i64
  %83 = and i64 %82, -2
  %84 = inttoptr i64 %83 to ptr
  %85 = getelementptr inbounds nuw %struct.DdNode, ptr %84, i32 0, i32 1
  %86 = load i32, ptr %85, align 4, !tbaa !51
  %87 = add i32 %86, 1
  store i32 %87, ptr %85, align 4, !tbaa !51
  %88 = load ptr, ptr %4, align 8, !tbaa !3
  %89 = load ptr, ptr %8, align 8, !tbaa !8
  call void @Cudd_RecursiveDerefZdd(ptr noundef %88, ptr noundef %89)
  %90 = load ptr, ptr %4, align 8, !tbaa !3
  %91 = load ptr, ptr %9, align 8, !tbaa !8
  call void @Cudd_RecursiveDerefZdd(ptr noundef %90, ptr noundef %91)
  %92 = load ptr, ptr %6, align 8, !tbaa !8
  %93 = ptrtoint ptr %92 to i64
  %94 = and i64 %93, -2
  %95 = inttoptr i64 %94 to ptr
  %96 = getelementptr inbounds nuw %struct.DdNode, ptr %95, i32 0, i32 1
  %97 = load i32, ptr %96, align 4, !tbaa !51
  %98 = add i32 %97, -1
  store i32 %98, ptr %96, align 4, !tbaa !51
  %99 = load ptr, ptr %4, align 8, !tbaa !3
  %100 = load ptr, ptr %5, align 8, !tbaa !8
  %101 = load ptr, ptr %6, align 8, !tbaa !8
  call void @cuddCacheInsert1(ptr noundef %99, ptr noundef @extraZddGetSingletons, ptr noundef %100, ptr noundef %101)
  %102 = load ptr, ptr %6, align 8, !tbaa !8
  store ptr %102, ptr %3, align 8
  store i32 1, ptr %7, align 4
  br label %103

103:                                              ; preds = %80, %75, %58, %35
  call void @llvm.lifetime.end.p0(i64 8, ptr %9) #6
  call void @llvm.lifetime.end.p0(i64 8, ptr %8) #6
  br label %104

104:                                              ; preds = %103, %24, %15
  call void @llvm.lifetime.end.p0(i64 8, ptr %6) #6
  %105 = load ptr, ptr %3, align 8
  ret ptr %105
}