; Function Attrs: nounwind uwtable
define ptr @extraZddGetSingletons(ptr noundef %0, ptr noundef %1) #0 {
  %3 = getelementptr inbounds nuw i8, ptr %0, i64 40
  %4 = load ptr, ptr %3, align 8, !tbaa !35
  %5 = icmp eq ptr %1, %4
  br i1 %5, label %47, label %6

6:                                                ; preds = %2
  %7 = tail call ptr @cuddCacheLookup1Zdd(ptr noundef nonnull %0, ptr noundef nonnull @extraZddGetSingletons, ptr noundef %1) #10
  %.not = icmp eq ptr %7, null
  br i1 %.not, label %8, label %47

8:                                                ; preds = %6
  %9 = getelementptr inbounds nuw i8, ptr %1, i64 16
  %10 = load ptr, ptr %9, align 8, !tbaa !38
  %11 = tail call ptr @extraZddGetSingletons(ptr noundef nonnull %0, ptr noundef %10)
  %12 = icmp eq ptr %11, null
  br i1 %12, label %47, label %13

13:                                               ; preds = %8
  %14 = ptrtoint ptr %11 to i64
  %15 = and i64 %14, -2
  %16 = inttoptr i64 %15 to ptr
  %17 = getelementptr inbounds nuw i8, ptr %16, i64 4
  %18 = load i32, ptr %17, align 4, !tbaa !47
  %19 = add i32 %18, 1
  store i32 %19, ptr %17, align 4, !tbaa !47
  %20 = load i32, ptr %1, align 8, !tbaa !36
  %21 = shl i32 %20, 1
  %22 = load ptr, ptr %3, align 8, !tbaa !35
  %23 = getelementptr inbounds nuw i8, ptr %0, i64 48
  %24 = load ptr, ptr %23, align 8, !tbaa !40
  %25 = tail call ptr @cuddZddGetNode(ptr noundef nonnull %0, i32 noundef %21, ptr noundef %22, ptr noundef %24) #10
  %26 = icmp eq ptr %25, null
  br i1 %26, label %27, label %28

27:                                               ; preds = %13
  tail call void @Cudd_RecursiveDerefZdd(ptr noundef nonnull %0, ptr noundef nonnull %11) #10
  br label %47

28:                                               ; preds = %13
  %29 = ptrtoint ptr %25 to i64
  %30 = and i64 %29, -2
  %31 = inttoptr i64 %30 to ptr
  %32 = getelementptr inbounds nuw i8, ptr %31, i64 4
  %33 = load i32, ptr %32, align 4, !tbaa !47
  %34 = add i32 %33, 1
  store i32 %34, ptr %32, align 4, !tbaa !47
  %35 = tail call ptr @cuddZddUnion(ptr noundef nonnull %0, ptr noundef nonnull %11, ptr noundef nonnull %25) #10
  %36 = icmp eq ptr %35, null
  br i1 %36, label %37, label %38

37:                                               ; preds = %28
  tail call void @Cudd_RecursiveDerefZdd(ptr noundef nonnull %0, ptr noundef nonnull %11) #10
  tail call void @Cudd_RecursiveDerefZdd(ptr noundef nonnull %0, ptr noundef nonnull %25) #10
  br label %47

38:                                               ; preds = %28
  %39 = ptrtoint ptr %35 to i64
  %40 = and i64 %39, -2
  %41 = inttoptr i64 %40 to ptr
  %42 = getelementptr inbounds nuw i8, ptr %41, i64 4
  %43 = load i32, ptr %42, align 4, !tbaa !47
  %44 = add i32 %43, 1
  store i32 %44, ptr %42, align 4, !tbaa !47
  tail call void @Cudd_RecursiveDerefZdd(ptr noundef nonnull %0, ptr noundef nonnull %11) #10
  tail call void @Cudd_RecursiveDerefZdd(ptr noundef nonnull %0, ptr noundef nonnull %25) #10
  %45 = load i32, ptr %42, align 4, !tbaa !47
  %46 = add i32 %45, -1
  store i32 %46, ptr %42, align 4, !tbaa !47
  tail call void @cuddCacheInsert1(ptr noundef nonnull %0, ptr noundef nonnull @extraZddGetSingletons, ptr noundef nonnull %1, ptr noundef nonnull %35) #10
  br label %47

47:                                               ; preds = %27, %37, %38, %8, %6, %2
  %.0 = phi ptr [ %4, %2 ], [ %7, %6 ], [ null, %27 ], [ null, %37 ], [ %35, %38 ], [ null, %8 ]
  ret ptr %.0
}